target datalayout = "e-m:e-p270:32:32-p271:32:32-p272:64:64-i64:64-i128:128-f80:128-n8:16:32:64-S128"
target triple = "x86_64-pc-linux-gnu"

%class.CommandData = type { %class.RAROptions, i8, i8, i32, i8, [2064 x i32], [2048 x i32], %class.StringList, %class.StringList, %class.StringList, %class.StringList, %class.StringList, %class.SecPassword, %"class.std::vector.0" }
%class.RAROptions = type { i32, i32, i8, i8, i8, i64, [2048 x i32], [2048 x i32], i32, i8, [2048 x i32], [2048 x i32], i32, i32, i32, i32, [2048 x i32], [2048 x i32], i8, i8, i8, [2048 x i32], i32, i32, i32, i32, i32, i32, i32, i32, i8, i8, i8, i8, i8, i32, i32, i8, i8, i8, i8, i8, i32, i32, i64, i32, i8, i8, i8, i32, i32, i8, i8, i8, i8, i32, i32, i8, i8, i8, i8, [128 x i32], [128 x i32], i8, i8, i8, i8, i8, %class.RarTime, %class.RarTime, %class.RarTime, i8, i8, i8, %class.RarTime, %class.RarTime, %class.RarTime, i8, i8, i8, i64, i64, i8, i8, i8, [16 x %struct.FilterMode], [2048 x i32], i32, i32, i32, i32, i32, i32, i8, [2048 x i32], i32, [2048 x i32], i32, i32, i64, ptr, ptr, ptr }
%class.RarTime = type { i64 }
%struct.FilterMode = type { i32, i32, i32 }
%class.StringList = type { %class.Array, i64, i64, [16 x i64], i64 }
%class.Array = type { ptr, i64, i64, i64 }
%class.SecPassword = type <{ %"class.std::vector", i8, [7 x i8] }>
%"class.std::vector" = type { %"struct.std::_Vector_base" }
%"struct.std::_Vector_base" = type { %"struct.std::_Vector_base<wchar_t, std::allocator<wchar_t>>::_Vector_impl" }
%"struct.std::_Vector_base<wchar_t, std::allocator<wchar_t>>::_Vector_impl" = type { %"struct.std::_Vector_base<wchar_t, std::allocator<wchar_t>>::_Vector_impl_data" }
%"struct.std::_Vector_base<wchar_t, std::allocator<wchar_t>>::_Vector_impl_data" = type { ptr, ptr, ptr }
%"class.std::vector.0" = type { %"struct.std::_Vector_base.1" }
%"struct.std::_Vector_base.1" = type { %"struct.std::_Vector_base<long, std::allocator<long>>::_Vector_impl" }
%"struct.std::_Vector_base<long, std::allocator<long>>::_Vector_impl" = type { %"struct.std::_Vector_base<long, std::allocator<long>>::_Vector_impl_data" }
%"struct.std::_Vector_base<long, std::allocator<long>>::_Vector_impl_data" = type { ptr, ptr, ptr }

; Function Attrs: mustprogress nounwind uwtable
define linkonce_odr noundef i64 @_ZN10StringList10ItemsCountEv(ptr noundef nonnull align 8 dereferenceable(184) %0) #1 comdat align 2 {
  %2 = alloca ptr, align 8
  store ptr %0, ptr %2, align 8
  %3 = load ptr, ptr %2, align 8
  %4 = getelementptr inbounds %class.StringList, ptr %3, i32 0, i32 2
  %5 = load i64, ptr %4, align 8
  ret i64 %5
}

; Function Attrs: mustprogress uwtable
define noundef zeroext i1 @_ZN11CommandData9ExclCheckEPKwbbb(ptr noundef nonnull align 8 dereferenceable(100904) %0, ptr noundef %1, i1 noundef zeroext %2, i1 noundef zeroext %3, i1 noundef zeroext %4) #0 align 2 {
  %6 = alloca i1, align 1
  %7 = alloca ptr, align 8
  %8 = alloca ptr, align 8
  %9 = alloca i8, align 1
  %10 = alloca i8, align 1
  %11 = alloca i8, align 1
  store ptr %0, ptr %7, align 8
  store ptr %1, ptr %8, align 8
  %12 = zext i1 %2 to i8
  store i8 %12, ptr %9, align 1
  %13 = zext i1 %3 to i8
  store i8 %13, ptr %10, align 1
  %14 = zext i1 %4 to i8
  store i8 %14, ptr %11, align 1
  %15 = load ptr, ptr %7, align 8
  %16 = getelementptr inbounds %class.CommandData, ptr %15, i32 0, i32 8
  %17 = load i8, ptr %9, align 1
  %18 = trunc i8 %17 to i1
  %19 = load ptr, ptr %8, align 8
  %20 = load i8, ptr %10, align 1
  %21 = trunc i8 %20 to i1
  %22 = call noundef zeroext i1 @_ZN11CommandData9CheckArgsEP10StringListbPKwbi(ptr noundef %16, i1 noundef zeroext %18, ptr noundef %19, i1 noundef zeroext %21, i32 noundef 6)
  br i1 %22, label %23, label %24

23:                                               ; preds = %5
  store i1 true, ptr %6, align 1
  br label %42

24:                                               ; preds = %5
  %25 = load i8, ptr %11, align 1
  %26 = trunc i8 %25 to i1
  br i1 %26, label %27, label %31

27:                                               ; preds = %24
  %28 = getelementptr inbounds %class.CommandData, ptr %15, i32 0, i32 9
  %29 = call noundef i64 @_ZN10StringList10ItemsCountEv(ptr noundef nonnull align 8 dereferenceable(184) %28)
  %30 = icmp eq i64 %29, 0
  br i1 %30, label %31, label %32

31:                                               ; preds = %27, %24
  store i1 false, ptr %6, align 1
  br label %42

32:                                               ; preds = %27
  %33 = getelementptr inbounds %class.CommandData, ptr %15, i32 0, i32 9
  %34 = load i8, ptr %9, align 1
  %35 = trunc i8 %34 to i1
  %36 = load ptr, ptr %8, align 8
  %37 = load i8, ptr %10, align 1
  %38 = trunc i8 %37 to i1
  %39 = call noundef zeroext i1 @_ZN11CommandData9CheckArgsEP10StringListbPKwbi(ptr noundef %33, i1 noundef zeroext %35, ptr noundef %36, i1 noundef zeroext %38, i32 noundef 6)
  br i1 %39, label %40, label %41

40:                                               ; preds = %32
  store i1 false, ptr %6, align 1
  br label %42

41:                                               ; preds = %32
  store i1 true, ptr %6, align 1
  br label %42

42:                                               ; preds = %41, %40, %31, %23
  %43 = load i1, ptr %6, align 1
  ret i1 %43
}