; Function Attrs: mustprogress uwtable
define noundef zeroext i1 @_ZN11CommandData9ExclCheckEPKwbbb(ptr noundef nonnull align 8 dereferenceable(100904) %0, ptr noundef %1, i1 noundef zeroext %2, i1 noundef zeroext %3, i1 noundef zeroext %4) local_unnamed_addr #0 align 2 {
  %6 = getelementptr inbounds nuw i8, ptr %0, i64 100112
  %7 = tail call noundef zeroext i1 @_ZN11CommandData9CheckArgsEP10StringListbPKwbi(ptr noundef nonnull %6, i1 noundef zeroext %2, ptr noundef %1, i1 noundef zeroext %3, i32 noundef 6)
  %.not = xor i1 %4, true
  %brmerge = or i1 %7, %.not
  br i1 %brmerge, label %15, label %8

8:                                                ; preds = %5
  %9 = getelementptr inbounds nuw i8, ptr %0, i64 100336
  %10 = load i64, ptr %9, align 8
  %11 = icmp eq i64 %10, 0
  br i1 %11, label %15, label %12

12:                                               ; preds = %8
  %13 = getelementptr inbounds nuw i8, ptr %0, i64 100296
  %14 = tail call noundef zeroext i1 @_ZN11CommandData9CheckArgsEP10StringListbPKwbi(ptr noundef nonnull %13, i1 noundef zeroext %2, ptr noundef %1, i1 noundef zeroext %3, i32 noundef 6)
  %not. = xor i1 %14, true
  br label %15

15:                                               ; preds = %5, %12, %8
  %.0 = phi i1 [ %7, %5 ], [ false, %8 ], [ %not., %12 ]
  ret i1 %.0
}